; Function Attrs: mustprogress nounwind uwtable
define hidden void @_ZN20JvmtiEventController25recompute_thread_filteredEP16JvmtiThreadState(ptr noundef %0) local_unnamed_addr #3 align 2 {
  %2 = load i64, ptr @_ZN20JvmtiEventController31_universal_global_event_enabledE, align 8
  %3 = and i64 %2, 2749786749763
  %.not.i = icmp eq i64 %3, 0
  br i1 %.not.i, label %_ZN27JvmtiEventControllerPrivate25recompute_thread_filteredEP16JvmtiThreadState.exit, label %4

4:                                                ; preds = %1
  %5 = tail call noundef i64 @_ZN27JvmtiEventControllerPrivate24recompute_thread_enabledEP16JvmtiThreadState(ptr noundef %0)
  br label %_ZN27JvmtiEventControllerPrivate25recompute_thread_filteredEP16JvmtiThreadState.exit

_ZN27JvmtiEventControllerPrivate25recompute_thread_filteredEP16JvmtiThreadState.exit: ; preds = %1, %4
  ret void
}